target datalayout = "e-m:e-p270:32:32-p271:32:32-p272:64:64-i64:64-i128:128-f80:128-n8:16:32:64-S128"
target triple = "x86_64-pc-linux-gnu"

%struct.Abc_Ntk_t_ = type { i32, i32, ptr, ptr, ptr, ptr, ptr, ptr, ptr, ptr, ptr, ptr, ptr, [11 x i32], i32, i32, i32, i32, ptr, i32, ptr, ptr, i32, i32, i32, double, i32, %struct.Vec_Int_t_, ptr, ptr, ptr, ptr, ptr, float, i32, ptr, ptr, ptr, ptr, ptr, ptr, ptr, ptr, ptr, ptr, ptr, ptr, ptr, ptr, ptr, ptr, ptr, ptr, ptr, ptr, ptr }
%struct.Vec_Int_t_ = type { i32, i32, ptr }
%struct.Abc_Obj_t_ = type { ptr, ptr, i32, i32, %struct.Vec_Int_t_, %struct.Vec_Int_t_, %union.anon, %union.anon.0 }
%union.anon = type { ptr }
%union.anon.0 = type { ptr }
%struct.Vec_Ptr_t_ = type { i32, i32, ptr }

@.str.7 = private unnamed_addr constant [2 x i8] c"\0A\00", align 1
@.str.37 = private unnamed_addr constant [22 x i8] c"Primary inputs (%d): \00", align 1
@.str.38 = private unnamed_addr constant [7 x i8] c" %d=%s\00", align 1
@.str.39 = private unnamed_addr constant [22 x i8] c"Primary outputs (%d):\00", align 1
@.str.40 = private unnamed_addr constant [16 x i8] c"Latches (%d):  \00", align 1
@.str.41 = private unnamed_addr constant [11 x i8] c" %s(%s=%s)\00", align 1

; Function Attrs: nounwind uwtable
define internal ptr @Vec_PtrEntry(ptr noundef %0, i32 noundef %1) #0 {
  %3 = alloca ptr, align 8
  %4 = alloca i32, align 4
  store ptr %0, ptr %3, align 8
  store i32 %1, ptr %4, align 4
  %5 = load ptr, ptr %3, align 8
  %6 = getelementptr inbounds %struct.Vec_Ptr_t_, ptr %5, i32 0, i32 2
  %7 = load ptr, ptr %6, align 8
  %8 = load i32, ptr %4, align 4
  %9 = sext i32 %8 to i64
  %10 = getelementptr inbounds ptr, ptr %7, i64 %9
  %11 = load ptr, ptr %10, align 8
  ret ptr %11
}

; Function Attrs: nounwind uwtable
define internal ptr @Abc_ObjFanin0(ptr noundef %0) #0 {
  %2 = alloca ptr, align 8
  store ptr %0, ptr %2, align 8
  %3 = load ptr, ptr %2, align 8
  %4 = getelementptr inbounds %struct.Abc_Obj_t_, ptr %3, i32 0, i32 0
  %5 = load ptr, ptr %4, align 8
  %6 = getelementptr inbounds %struct.Abc_Ntk_t_, ptr %5, i32 0, i32 5
  %7 = load ptr, ptr %6, align 8
  %8 = getelementptr inbounds %struct.Vec_Ptr_t_, ptr %7, i32 0, i32 2
  %9 = load ptr, ptr %8, align 8
  %10 = load ptr, ptr %2, align 8
  %11 = getelementptr inbounds %struct.Abc_Obj_t_, ptr %10, i32 0, i32 4
  %12 = getelementptr inbounds %struct.Vec_Int_t_, ptr %11, i32 0, i32 2
  %13 = load ptr, ptr %12, align 8
  %14 = getelementptr inbounds i32, ptr %13, i64 0
  %15 = load i32, ptr %14, align 4
  %16 = sext i32 %15 to i64
  %17 = getelementptr inbounds ptr, ptr %9, i64 %16
  %18 = load ptr, ptr %17, align 8
  ret ptr %18
}

; Function Attrs: nounwind uwtable
define internal ptr @Abc_ObjFanout0(ptr noundef %0) #0 {
  %2 = alloca ptr, align 8
  store ptr %0, ptr %2, align 8
  %3 = load ptr, ptr %2, align 8
  %4 = getelementptr inbounds %struct.Abc_Obj_t_, ptr %3, i32 0, i32 0
  %5 = load ptr, ptr %4, align 8
  %6 = getelementptr inbounds %struct.Abc_Ntk_t_, ptr %5, i32 0, i32 5
  %7 = load ptr, ptr %6, align 8
  %8 = getelementptr inbounds %struct.Vec_Ptr_t_, ptr %7, i32 0, i32 2
  %9 = load ptr, ptr %8, align 8
  %10 = load ptr, ptr %2, align 8
  %11 = getelementptr inbounds %struct.Abc_Obj_t_, ptr %10, i32 0, i32 5
  %12 = getelementptr inbounds %struct.Vec_Int_t_, ptr %11, i32 0, i32 2
  %13 = load ptr, ptr %12, align 8
  %14 = getelementptr inbounds i32, ptr %13, i64 0
  %15 = load i32, ptr %14, align 4
  %16 = sext i32 %15 to i64
  %17 = getelementptr inbounds ptr, ptr %9, i64 %16
  %18 = load ptr, ptr %17, align 8
  ret ptr %18
}

; Function Attrs: nounwind uwtable
define internal i32 @Abc_ObjIsLatch(ptr noundef %0) #0 {
  %2 = alloca ptr, align 8
  store ptr %0, ptr %2, align 8
  %3 = load ptr, ptr %2, align 8
  %4 = getelementptr inbounds %struct.Abc_Obj_t_, ptr %3, i32 0, i32 3
  %5 = load i32, ptr %4, align 4
  %6 = and i32 %5, 15
  %7 = icmp eq i32 %6, 8
  %8 = zext i1 %7 to i32
  ret i32 %8
}

; Function Attrs: nounwind uwtable
define internal ptr @Abc_NtkBox(ptr noundef %0, i32 noundef %1) #0 {
  %3 = alloca ptr, align 8
  %4 = alloca i32, align 4
  store ptr %0, ptr %3, align 8
  store i32 %1, ptr %4, align 4
  %5 = load ptr, ptr %3, align 8
  %6 = getelementptr inbounds %struct.Abc_Ntk_t_, ptr %5, i32 0, i32 11
  %7 = load ptr, ptr %6, align 8
  %8 = load i32, ptr %4, align 4
  %9 = call ptr @Vec_PtrEntry(ptr noundef %7, i32 noundef %8)
  ret ptr %9
}

; Function Attrs: nounwind uwtable
define internal i32 @Vec_PtrSize(ptr noundef %0) #0 {
  %2 = alloca ptr, align 8
  store ptr %0, ptr %2, align 8
  %3 = load ptr, ptr %2, align 8
  %4 = getelementptr inbounds %struct.Vec_Ptr_t_, ptr %3, i32 0, i32 1
  %5 = load i32, ptr %4, align 4
  ret i32 %5
}

; Function Attrs: nounwind uwtable
define internal i32 @Abc_NtkLatchNum(ptr noundef %0) #0 {
  %2 = alloca ptr, align 8
  store ptr %0, ptr %2, align 8
  %3 = load ptr, ptr %2, align 8
  %4 = getelementptr inbounds %struct.Abc_Ntk_t_, ptr %3, i32 0, i32 13
  %5 = getelementptr inbounds [11 x i32], ptr %4, i64 0, i64 8
  %6 = load i32, ptr %5, align 8
  ret i32 %6
}

; Function Attrs: nounwind uwtable
define internal ptr @Abc_NtkPo(ptr noundef %0, i32 noundef %1) #0 {
  %3 = alloca ptr, align 8
  %4 = alloca i32, align 4
  store ptr %0, ptr %3, align 8
  store i32 %1, ptr %4, align 4
  %5 = load ptr, ptr %3, align 8
  %6 = getelementptr inbounds %struct.Abc_Ntk_t_, ptr %5, i32 0, i32 7
  %7 = load ptr, ptr %6, align 8
  %8 = load i32, ptr %4, align 4
  %9 = call ptr @Vec_PtrEntry(ptr noundef %7, i32 noundef %8)
  ret ptr %9
}

; Function Attrs: nounwind uwtable
define internal i32 @Abc_NtkPoNum(ptr noundef %0) #0 {
  %2 = alloca ptr, align 8
  store ptr %0, ptr %2, align 8
  %3 = load ptr, ptr %2, align 8
  %4 = getelementptr inbounds %struct.Abc_Ntk_t_, ptr %3, i32 0, i32 7
  %5 = load ptr, ptr %4, align 8
  %6 = call i32 @Vec_PtrSize(ptr noundef %5)
  ret i32 %6
}

; Function Attrs: nounwind uwtable
define internal ptr @Abc_NtkPi(ptr noundef %0, i32 noundef %1) #0 {
  %3 = alloca ptr, align 8
  %4 = alloca i32, align 4
  store ptr %0, ptr %3, align 8
  store i32 %1, ptr %4, align 4
  %5 = load ptr, ptr %3, align 8
  %6 = getelementptr inbounds %struct.Abc_Ntk_t_, ptr %5, i32 0, i32 6
  %7 = load ptr, ptr %6, align 8
  %8 = load i32, ptr %4, align 4
  %9 = call ptr @Vec_PtrEntry(ptr noundef %7, i32 noundef %8)
  ret ptr %9
}

; Function Attrs: nounwind uwtable
define internal i32 @Abc_NtkPiNum(ptr noundef %0) #0 {
  %2 = alloca ptr, align 8
  store ptr %0, ptr %2, align 8
  %3 = load ptr, ptr %2, align 8
  %4 = getelementptr inbounds %struct.Abc_Ntk_t_, ptr %3, i32 0, i32 6
  %5 = load ptr, ptr %4, align 8
  %6 = call i32 @Vec_PtrSize(ptr noundef %5)
  ret i32 %6
}

; Function Attrs: nounwind uwtable
define void @Abc_NtkPrintIo(ptr noundef %0, ptr noundef %1, i32 noundef %2) #0 {
  %4 = alloca ptr, align 8
  %5 = alloca ptr, align 8
  %6 = alloca i32, align 4
  %7 = alloca ptr, align 8
  %8 = alloca i32, align 4
  store ptr %0, ptr %4, align 8
  store ptr %1, ptr %5, align 8
  store i32 %2, ptr %6, align 4
  %9 = load ptr, ptr %4, align 8
  %10 = load ptr, ptr %5, align 8
  %11 = call i32 @Abc_NtkPiNum(ptr noundef %10)
  %12 = call i32 (ptr, ptr, ...) @fprintf(ptr noundef %9, ptr noundef @.str.37, i32 noundef %11) #11
  store i32 0, ptr %8, align 4
  br label %13

13:                                               ; preds = %30, %3
  %14 = load i32, ptr %8, align 4
  %15 = load ptr, ptr %5, align 8
  %16 = call i32 @Abc_NtkPiNum(ptr noundef %15)
  %17 = icmp slt i32 %14, %16
  br i1 %17, label %18, label %22

18:                                               ; preds = %13
  %19 = load ptr, ptr %5, align 8
  %20 = load i32, ptr %8, align 4
  %21 = call ptr @Abc_NtkPi(ptr noundef %19, i32 noundef %20)
  store ptr %21, ptr %7, align 8
  br label %22

22:                                               ; preds = %18, %13
  %23 = phi i1 [ false, %13 ], [ true, %18 ]
  br i1 %23, label %24, label %33

24:                                               ; preds = %22
  %25 = load ptr, ptr %4, align 8
  %26 = load i32, ptr %8, align 4
  %27 = load ptr, ptr %7, align 8
  %28 = call ptr @Abc_ObjName(ptr noundef %27)
  %29 = call i32 (ptr, ptr, ...) @fprintf(ptr noundef %25, ptr noundef @.str.38, i32 noundef %26, ptr noundef %28) #11
  br label %30

30:                                               ; preds = %24
  %31 = load i32, ptr %8, align 4
  %32 = add nsw i32 %31, 1
  store i32 %32, ptr %8, align 4
  br label %13, !llvm.loop !17

33:                                               ; preds = %22
  %34 = load ptr, ptr %4, align 8
  %35 = call i32 (ptr, ptr, ...) @fprintf(ptr noundef %34, ptr noundef @.str.7) #11
  %36 = load ptr, ptr %4, align 8
  %37 = load ptr, ptr %5, align 8
  %38 = call i32 @Abc_NtkPoNum(ptr noundef %37)
  %39 = call i32 (ptr, ptr, ...) @fprintf(ptr noundef %36, ptr noundef @.str.39, i32 noundef %38) #11
  store i32 0, ptr %8, align 4
  br label %40

40:                                               ; preds = %57, %33
  %41 = load i32, ptr %8, align 4
  %42 = load ptr, ptr %5, align 8
  %43 = call i32 @Abc_NtkPoNum(ptr noundef %42)
  %44 = icmp slt i32 %41, %43
  br i1 %44, label %45, label %49

45:                                               ; preds = %40
  %46 = load ptr, ptr %5, align 8
  %47 = load i32, ptr %8, align 4
  %48 = call ptr @Abc_NtkPo(ptr noundef %46, i32 noundef %47)
  store ptr %48, ptr %7, align 8
  br label %49

49:                                               ; preds = %45, %40
  %50 = phi i1 [ false, %40 ], [ true, %45 ]
  br i1 %50, label %51, label %60

51:                                               ; preds = %49
  %52 = load ptr, ptr %4, align 8
  %53 = load i32, ptr %8, align 4
  %54 = load ptr, ptr %7, align 8
  %55 = call ptr @Abc_ObjName(ptr noundef %54)
  %56 = call i32 (ptr, ptr, ...) @fprintf(ptr noundef %52, ptr noundef @.str.38, i32 noundef %53, ptr noundef %55) #11
  br label %57

57:                                               ; preds = %51
  %58 = load i32, ptr %8, align 4
  %59 = add nsw i32 %58, 1
  store i32 %59, ptr %8, align 4
  br label %40, !llvm.loop !18

60:                                               ; preds = %49
  %61 = load ptr, ptr %4, align 8
  %62 = call i32 (ptr, ptr, ...) @fprintf(ptr noundef %61, ptr noundef @.str.7) #11
  %63 = load i32, ptr %6, align 4
  %64 = icmp ne i32 %63, 0
  br i1 %64, label %66, label %65

65:                                               ; preds = %60
  br label %107

66:                                               ; preds = %60
  %67 = load ptr, ptr %4, align 8
  %68 = load ptr, ptr %5, align 8
  %69 = call i32 @Abc_NtkLatchNum(ptr noundef %68)
  %70 = call i32 (ptr, ptr, ...) @fprintf(ptr noundef %67, ptr noundef @.str.40, i32 noundef %69) #11
  store i32 0, ptr %8, align 4
  br label %71

71:                                               ; preds = %101, %66
  %72 = load i32, ptr %8, align 4
  %73 = load ptr, ptr %5, align 8
  %74 = getelementptr inbounds %struct.Abc_Ntk_t_, ptr %73, i32 0, i32 11
  %75 = load ptr, ptr %74, align 8
  %76 = call i32 @Vec_PtrSize(ptr noundef %75)
  %77 = icmp slt i32 %72, %76
  br i1 %77, label %78, label %82

78:                                               ; preds = %71
  %79 = load ptr, ptr %5, align 8
  %80 = load i32, ptr %8, align 4
  %81 = call ptr @Abc_NtkBox(ptr noundef %79, i32 noundef %80)
  store ptr %81, ptr %7, align 8
  br label %82

82:                                               ; preds = %78, %71
  %83 = phi i1 [ false, %71 ], [ true, %78 ]
  br i1 %83, label %84, label %104

84:                                               ; preds = %82
  %85 = load ptr, ptr %7, align 8
  %86 = call i32 @Abc_ObjIsLatch(ptr noundef %85)
  %87 = icmp ne i32 %86, 0
  br i1 %87, label %89, label %88

88:                                               ; preds = %84
  br label %100

89:                                               ; preds = %84
  %90 = load ptr, ptr %4, align 8
  %91 = load ptr, ptr %7, align 8
  %92 = call ptr @Abc_ObjName(ptr noundef %91)
  %93 = load ptr, ptr %7, align 8
  %94 = call ptr @Abc_ObjFanout0(ptr noundef %93)
  %95 = call ptr @Abc_ObjName(ptr noundef %94)
  %96 = load ptr, ptr %7, align 8
  %97 = call ptr @Abc_ObjFanin0(ptr noundef %96)
  %98 = call ptr @Abc_ObjName(ptr noundef %97)
  %99 = call i32 (ptr, ptr, ...) @fprintf(ptr noundef %90, ptr noundef @.str.41, ptr noundef %92, ptr noundef %95, ptr noundef %98) #11
  br label %100

100:                                              ; preds = %89, %88
  br label %101

101:                                              ; preds = %100
  %102 = load i32, ptr %8, align 4
  %103 = add nsw i32 %102, 1
  store i32 %103, ptr %8, align 4
  br label %71, !llvm.loop !19

104:                                              ; preds = %82
  %105 = load ptr, ptr %4, align 8
  %106 = call i32 (ptr, ptr, ...) @fprintf(ptr noundef %105, ptr noundef @.str.7) #11
  br label %107

107:                                              ; preds = %104, %65
  ret void
}