; Function Attrs: nounwind uwtable
define void @Abc_NtkPrintIo(ptr noundef captures(none) %0, ptr noundef readonly captures(none) %1, i32 noundef %2) local_unnamed_addr #0 {
  %4 = getelementptr i8, ptr %1, i64 40
  %.val44 = load ptr, ptr %4, align 8
  %5 = getelementptr i8, ptr %.val44, i64 4
  %.val44.val = load i32, ptr %5, align 4
  %6 = tail call i32 (ptr, ptr, ...) @fprintf(ptr noundef %0, ptr noundef nonnull @.str.37, i32 noundef %.val44.val) #19
  %.val4356 = load ptr, ptr %4, align 8
  %7 = getelementptr i8, ptr %.val4356, i64 4
  %.val43.val57 = load i32, ptr %7, align 4
  %8 = icmp sgt i32 %.val43.val57, 0
  br i1 %8, label %.lr.ph, label %.critedge

.lr.ph:                                           ; preds = %3, %.lr.ph
  %indvars.iv = phi i64 [ %indvars.iv.next, %.lr.ph ], [ 0, %3 ]
  %.val4359 = phi ptr [ %.val43, %.lr.ph ], [ %.val4356, %3 ]
  %9 = getelementptr i8, ptr %.val4359, i64 8
  %.val49.val = load ptr, ptr %9, align 8
  %10 = getelementptr inbounds nuw ptr, ptr %.val49.val, i64 %indvars.iv
  %11 = load ptr, ptr %10, align 8
  %12 = tail call ptr @Abc_ObjName(ptr noundef %11) #19
  %13 = trunc nuw nsw i64 %indvars.iv to i32
  %14 = tail call i32 (ptr, ptr, ...) @fprintf(ptr noundef %0, ptr noundef nonnull @.str.38, i32 noundef %13, ptr noundef %12) #19
  %indvars.iv.next = add nuw nsw i64 %indvars.iv, 1
  %.val43 = load ptr, ptr %4, align 8
  %15 = getelementptr i8, ptr %.val43, i64 4
  %.val43.val = load i32, ptr %15, align 4
  %16 = sext i32 %.val43.val to i64
  %17 = icmp slt i64 %indvars.iv.next, %16
  br i1 %17, label %.lr.ph, label %.critedge, !llvm.loop !17

.critedge:                                        ; preds = %.lr.ph, %3
  %fputc = tail call i32 @fputc(i32 10, ptr %0)
  %18 = getelementptr i8, ptr %1, i64 48
  %.val46 = load ptr, ptr %18, align 8
  %19 = getelementptr i8, ptr %.val46, i64 4
  %.val46.val = load i32, ptr %19, align 4
  %20 = tail call i32 (ptr, ptr, ...) @fprintf(ptr noundef %0, ptr noundef nonnull @.str.39, i32 noundef %.val46.val) #19
  %.val4560 = load ptr, ptr %18, align 8
  %21 = getelementptr i8, ptr %.val4560, i64 4
  %.val45.val61 = load i32, ptr %21, align 4
  %22 = icmp sgt i32 %.val45.val61, 0
  br i1 %22, label %.lr.ph64, label %.critedge2

.lr.ph64:                                         ; preds = %.critedge, %.lr.ph64
  %indvars.iv69 = phi i64 [ %indvars.iv.next70, %.lr.ph64 ], [ 0, %.critedge ]
  %.val4563 = phi ptr [ %.val45, %.lr.ph64 ], [ %.val4560, %.critedge ]
  %23 = getelementptr i8, ptr %.val4563, i64 8
  %.val50.val = load ptr, ptr %23, align 8
  %24 = getelementptr inbounds nuw ptr, ptr %.val50.val, i64 %indvars.iv69
  %25 = load ptr, ptr %24, align 8
  %26 = tail call ptr @Abc_ObjName(ptr noundef %25) #19
  %27 = trunc nuw nsw i64 %indvars.iv69 to i32
  %28 = tail call i32 (ptr, ptr, ...) @fprintf(ptr noundef %0, ptr noundef nonnull @.str.38, i32 noundef %27, ptr noundef %26) #19
  %indvars.iv.next70 = add nuw nsw i64 %indvars.iv69, 1
  %.val45 = load ptr, ptr %18, align 8
  %29 = getelementptr i8, ptr %.val45, i64 4
  %.val45.val = load i32, ptr %29, align 4
  %30 = sext i32 %.val45.val to i64
  %31 = icmp slt i64 %indvars.iv.next70, %30
  br i1 %31, label %.lr.ph64, label %.critedge2, !llvm.loop !18

.critedge2:                                       ; preds = %.lr.ph64, %.critedge
  %fputc39 = tail call i32 @fputc(i32 10, ptr %0)
  %.not = icmp eq i32 %2, 0
  br i1 %.not, label %67, label %32

32:                                               ; preds = %.critedge2
  %33 = getelementptr i8, ptr %1, i64 128
  %.val = load i32, ptr %33, align 8
  %34 = tail call i32 (ptr, ptr, ...) @fprintf(ptr noundef %0, ptr noundef nonnull @.str.40, i32 noundef %.val) #19
  %35 = getelementptr inbounds nuw i8, ptr %1, i64 80
  %36 = load ptr, ptr %35, align 8
  %37 = getelementptr i8, ptr %36, i64 4
  %.val4265 = load i32, ptr %37, align 4
  %38 = icmp sgt i32 %.val4265, 0
  br i1 %38, label %.lr.ph67, label %.critedge4

.lr.ph67:                                         ; preds = %32, %62
  %39 = phi ptr [ %63, %62 ], [ %36, %32 ]
  %indvars.iv72 = phi i64 [ %indvars.iv.next73, %62 ], [ 0, %32 ]
  %40 = getelementptr i8, ptr %39, i64 8
  %.val51.val = load ptr, ptr %40, align 8
  %41 = getelementptr inbounds nuw ptr, ptr %.val51.val, i64 %indvars.iv72
  %42 = load ptr, ptr %41, align 8
  %43 = getelementptr i8, ptr %42, i64 20
  %.val52 = load i32, ptr %43, align 4
  %44 = and i32 %.val52, 15
  %.not55 = icmp eq i32 %44, 8
  br i1 %.not55, label %45, label %62

45:                                               ; preds = %.lr.ph67
  %46 = tail call ptr @Abc_ObjName(ptr noundef nonnull %42) #19
  %.val53 = load ptr, ptr %42, align 8
  %47 = getelementptr i8, ptr %42, i64 48
  %.val54 = load ptr, ptr %47, align 8
  %48 = getelementptr i8, ptr %.val53, i64 32
  %.val53.val = load ptr, ptr %48, align 8
  %.val54.val = load i32, ptr %.val54, align 4
  %49 = getelementptr i8, ptr %.val53.val, i64 8
  %.val53.val.val = load ptr, ptr %49, align 8
  %50 = sext i32 %.val54.val to i64
  %51 = getelementptr inbounds ptr, ptr %.val53.val.val, i64 %50
  %52 = load ptr, ptr %51, align 8
  %53 = tail call ptr @Abc_ObjName(ptr noundef %52) #19
  %.val47 = load ptr, ptr %42, align 8
  %54 = getelementptr i8, ptr %42, i64 32
  %.val48 = load ptr, ptr %54, align 8
  %55 = getelementptr i8, ptr %.val47, i64 32
  %.val47.val = load ptr, ptr %55, align 8
  %.val48.val = load i32, ptr %.val48, align 4
  %56 = getelementptr i8, ptr %.val47.val, i64 8
  %.val47.val.val = load ptr, ptr %56, align 8
  %57 = sext i32 %.val48.val to i64
  %58 = getelementptr inbounds ptr, ptr %.val47.val.val, i64 %57
  %59 = load ptr, ptr %58, align 8
  %60 = tail call ptr @Abc_ObjName(ptr noundef %59) #19
  %61 = tail call i32 (ptr, ptr, ...) @fprintf(ptr noundef %0, ptr noundef nonnull @.str.41, ptr noundef %46, ptr noundef %53, ptr noundef %60) #19
  %.pre = load ptr, ptr %35, align 8
  br label %62

62:                                               ; preds = %45, %.lr.ph67
  %63 = phi ptr [ %.pre, %45 ], [ %39, %.lr.ph67 ]
  %indvars.iv.next73 = add nuw nsw i64 %indvars.iv72, 1
  %64 = getelementptr i8, ptr %63, i64 4
  %.val42 = load i32, ptr %64, align 4
  %65 = sext i32 %.val42 to i64
  %66 = icmp slt i64 %indvars.iv.next73, %65
  br i1 %66, label %.lr.ph67, label %.critedge4, !llvm.loop !19

.critedge4:                                       ; preds = %62, %32
  %fputc40 = tail call i32 @fputc(i32 10, ptr %0)
  br label %67

67:                                               ; preds = %.critedge2, %.critedge4
  ret void
}